target datalayout = "e-m:e-p270:32:32-p271:32:32-p272:64:64-i64:64-i128:128-f80:128-n8:16:32:64-S128"
target triple = "x86_64-pc-linux-gnu"

%struct._generic_SUNLinearSolver = type { ptr, ptr, ptr }
%struct._generic_SUNLinearSolver_Ops = type { ptr, ptr, ptr, ptr, ptr, ptr, ptr, ptr, ptr, ptr, ptr, ptr, ptr, ptr, ptr }
%struct.CVodeMemRec = type { ptr, double, ptr, ptr, i32, i32, double, double, ptr, i32, i32, ptr, ptr, i32, [13 x ptr], ptr, ptr, ptr, ptr, ptr, ptr, ptr, ptr, ptr, i32, i32, double, i32, i32, i32, i32, i32, double, double, double, double, double, double, double, double, [14 x double], [6 x double], [13 x double], double, double, double, double, double, double, double, i32, double, i32, i64, i32, i32, i32, double, double, double, double, double, double, double, double, double, double, double, double, i64, i32, i64, i64, i64, i64, i64, i64, i64, i32, double, double, double, i64, i64, i64, i64, ptr, i32, ptr, i32, ptr, ptr, ptr, ptr, ptr, i64, double, i32, i64, double, double, double, i32, double, i32, i32, i32, i32, i32, ptr, i64, i32, [6 x [4 x double]], i32, i64, ptr, i32, ptr, ptr, double, double, double, ptr, ptr, ptr, double, double, i32, i32, i64, ptr, i32, ptr, i32, i32, [13 x double], [13 x double], [13 x ptr], i32 }
%struct.CVLsMemRec = type { i32, i32, i32, ptr, ptr, i32, double, i32, double, double, ptr, ptr, ptr, ptr, ptr, ptr, ptr, i64, i64, i64, i64, i64, i64, i64, i64, i64, i64, double, ptr, ptr, ptr, ptr, i32, ptr, ptr, ptr, ptr, i32, ptr, ptr, i32 }

@.str = private unnamed_addr constant [116 x i8] c"generated/home/dtcxzyw/WorkSpace/Projects/compilers/llvm-opt-benchmark/bench/sundials/sundials/src/cvode/cvode_ls.c\00", align 1
@.str.1 = private unnamed_addr constant [27 x i8] c"Integrator memory is NULL.\00", align 1
@__func__.CVodeSetJacTimes = private unnamed_addr constant [17 x i8] c"CVodeSetJacTimes\00", align 1
@.str.16 = private unnamed_addr constant [69 x i8] c"SUNLinearSolver object does not support user-supplied ATimes routine\00", align 1
@.str.30 = private unnamed_addr constant [30 x i8] c"Linear solver memory is NULL.\00", align 1

; Function Attrs: nounwind uwtable
define i32 @cvLs_AccessLMem(ptr noundef %0, ptr noundef %1, ptr noundef %2, ptr noundef %3) #0 {
  %5 = alloca i32, align 4
  %6 = alloca ptr, align 8
  %7 = alloca ptr, align 8
  %8 = alloca ptr, align 8
  %9 = alloca ptr, align 8
  store ptr %0, ptr %6, align 8, !tbaa !3
  store ptr %1, ptr %7, align 8, !tbaa !117
  store ptr %2, ptr %8, align 8, !tbaa !119
  store ptr %3, ptr %9, align 8, !tbaa !121
  %10 = load ptr, ptr %6, align 8, !tbaa !3
  %11 = icmp eq ptr %10, null
  br i1 %11, label %12, label %14

12:                                               ; preds = %4
  %13 = load ptr, ptr %7, align 8, !tbaa !117
  call void (ptr, i32, i32, ptr, ptr, ptr, ...) @cvProcessError(ptr noundef null, i32 noundef -1, i32 noundef 1930, ptr noundef %13, ptr noundef @.str, ptr noundef @.str.1)
  store i32 -1, ptr %5, align 4
  br label %32

14:                                               ; preds = %4
  %15 = load ptr, ptr %6, align 8, !tbaa !3
  %16 = load ptr, ptr %8, align 8, !tbaa !119
  store ptr %15, ptr %16, align 8, !tbaa !11
  %17 = load ptr, ptr %8, align 8, !tbaa !119
  %18 = load ptr, ptr %17, align 8, !tbaa !11
  %19 = getelementptr inbounds nuw %struct.CVodeMemRec, ptr %18, i32 0, i32 94
  %20 = load ptr, ptr %19, align 8, !tbaa !79
  %21 = icmp eq ptr %20, null
  br i1 %21, label %22, label %26

22:                                               ; preds = %14
  %23 = load ptr, ptr %8, align 8, !tbaa !119
  %24 = load ptr, ptr %23, align 8, !tbaa !11
  %25 = load ptr, ptr %7, align 8, !tbaa !117
  call void (ptr, i32, i32, ptr, ptr, ptr, ...) @cvProcessError(ptr noundef %24, i32 noundef -2, i32 noundef 1937, ptr noundef %25, ptr noundef @.str, ptr noundef @.str.30)
  store i32 -2, ptr %5, align 4
  br label %32

26:                                               ; preds = %14
  %27 = load ptr, ptr %8, align 8, !tbaa !119
  %28 = load ptr, ptr %27, align 8, !tbaa !11
  %29 = getelementptr inbounds nuw %struct.CVodeMemRec, ptr %28, i32 0, i32 94
  %30 = load ptr, ptr %29, align 8, !tbaa !79
  %31 = load ptr, ptr %9, align 8, !tbaa !121
  store ptr %30, ptr %31, align 8, !tbaa !43
  store i32 0, ptr %5, align 4
  br label %32

32:                                               ; preds = %26, %22, %12
  %33 = load i32, ptr %5, align 4
  ret i32 %33
}

; Function Attrs: nounwind uwtable
define i32 @CVodeSetJacTimes(ptr noundef %0, ptr noundef %1, ptr noundef %2) #0 {
  %4 = alloca i32, align 4
  %5 = alloca ptr, align 8
  %6 = alloca ptr, align 8
  %7 = alloca ptr, align 8
  %8 = alloca ptr, align 8
  %9 = alloca ptr, align 8
  %10 = alloca i32, align 4
  %11 = alloca i32, align 4
  store ptr %0, ptr %5, align 8, !tbaa !3
  store ptr %1, ptr %6, align 8, !tbaa !3
  store ptr %2, ptr %7, align 8, !tbaa !3
  call void @llvm.lifetime.start.p0(i64 8, ptr %8) #7
  call void @llvm.lifetime.start.p0(i64 8, ptr %9) #7
  call void @llvm.lifetime.start.p0(i64 4, ptr %10) #7
  %12 = load ptr, ptr %5, align 8, !tbaa !3
  %13 = call i32 @cvLs_AccessLMem(ptr noundef %12, ptr noundef @__func__.CVodeSetJacTimes, ptr noundef %8, ptr noundef %9)
  store i32 %13, ptr %10, align 4, !tbaa !20
  %14 = load i32, ptr %10, align 4, !tbaa !20
  %15 = icmp ne i32 %14, 0
  br i1 %15, label %16, label %18

16:                                               ; preds = %3
  %17 = load i32, ptr %10, align 4, !tbaa !20
  store i32 %17, ptr %4, align 4
  store i32 1, ptr %11, align 4
  br label %62

18:                                               ; preds = %3
  %19 = load ptr, ptr %9, align 8, !tbaa !43
  %20 = getelementptr inbounds nuw %struct.CVLsMemRec, ptr %19, i32 0, i32 10
  %21 = load ptr, ptr %20, align 8, !tbaa !45
  %22 = getelementptr inbounds nuw %struct._generic_SUNLinearSolver, ptr %21, i32 0, i32 1
  %23 = load ptr, ptr %22, align 8, !tbaa !13
  %24 = getelementptr inbounds nuw %struct._generic_SUNLinearSolver_Ops, ptr %23, i32 0, i32 2
  %25 = load ptr, ptr %24, align 8, !tbaa !38
  %26 = icmp eq ptr %25, null
  br i1 %26, label %27, label %29

27:                                               ; preds = %18
  %28 = load ptr, ptr %8, align 8, !tbaa !11
  call void (ptr, i32, i32, ptr, ptr, ptr, ...) @cvProcessError(ptr noundef %28, i32 noundef -3, i32 noundef 507, ptr noundef @__func__.CVodeSetJacTimes, ptr noundef @.str, ptr noundef @.str.16)
  store i32 -3, ptr %4, align 4
  store i32 1, ptr %11, align 4
  br label %62

29:                                               ; preds = %18
  %30 = load ptr, ptr %7, align 8, !tbaa !3
  %31 = icmp ne ptr %30, null
  br i1 %31, label %32, label %46

32:                                               ; preds = %29
  %33 = load ptr, ptr %9, align 8, !tbaa !43
  %34 = getelementptr inbounds nuw %struct.CVLsMemRec, ptr %33, i32 0, i32 32
  store i32 0, ptr %34, align 8, !tbaa !52
  %35 = load ptr, ptr %6, align 8, !tbaa !3
  %36 = load ptr, ptr %9, align 8, !tbaa !43
  %37 = getelementptr inbounds nuw %struct.CVLsMemRec, ptr %36, i32 0, i32 33
  store ptr %35, ptr %37, align 8, !tbaa !53
  %38 = load ptr, ptr %7, align 8, !tbaa !3
  %39 = load ptr, ptr %9, align 8, !tbaa !43
  %40 = getelementptr inbounds nuw %struct.CVLsMemRec, ptr %39, i32 0, i32 34
  store ptr %38, ptr %40, align 8, !tbaa !54
  %41 = load ptr, ptr %8, align 8, !tbaa !11
  %42 = getelementptr inbounds nuw %struct.CVodeMemRec, ptr %41, i32 0, i32 3
  %43 = load ptr, ptr %42, align 8, !tbaa !64
  %44 = load ptr, ptr %9, align 8, !tbaa !43
  %45 = getelementptr inbounds nuw %struct.CVLsMemRec, ptr %44, i32 0, i32 36
  store ptr %43, ptr %45, align 8, !tbaa !57
  br label %61

46:                                               ; preds = %29
  %47 = load ptr, ptr %9, align 8, !tbaa !43
  %48 = getelementptr inbounds nuw %struct.CVLsMemRec, ptr %47, i32 0, i32 32
  store i32 1, ptr %48, align 8, !tbaa !52
  %49 = load ptr, ptr %9, align 8, !tbaa !43
  %50 = getelementptr inbounds nuw %struct.CVLsMemRec, ptr %49, i32 0, i32 33
  store ptr null, ptr %50, align 8, !tbaa !53
  %51 = load ptr, ptr %9, align 8, !tbaa !43
  %52 = getelementptr inbounds nuw %struct.CVLsMemRec, ptr %51, i32 0, i32 34
  store ptr @cvLsDQJtimes, ptr %52, align 8, !tbaa !54
  %53 = load ptr, ptr %8, align 8, !tbaa !11
  %54 = getelementptr inbounds nuw %struct.CVodeMemRec, ptr %53, i32 0, i32 2
  %55 = load ptr, ptr %54, align 8, !tbaa !55
  %56 = load ptr, ptr %9, align 8, !tbaa !43
  %57 = getelementptr inbounds nuw %struct.CVLsMemRec, ptr %56, i32 0, i32 35
  store ptr %55, ptr %57, align 8, !tbaa !56
  %58 = load ptr, ptr %8, align 8, !tbaa !11
  %59 = load ptr, ptr %9, align 8, !tbaa !43
  %60 = getelementptr inbounds nuw %struct.CVLsMemRec, ptr %59, i32 0, i32 36
  store ptr %58, ptr %60, align 8, !tbaa !57
  br label %61

61:                                               ; preds = %46, %32
  store i32 0, ptr %4, align 4
  store i32 1, ptr %11, align 4
  br label %62

62:                                               ; preds = %61, %27, %16
  call void @llvm.lifetime.end.p0(i64 4, ptr %10) #7
  call void @llvm.lifetime.end.p0(i64 8, ptr %9) #7
  call void @llvm.lifetime.end.p0(i64 8, ptr %8) #7
  %63 = load i32, ptr %4, align 4
  ret i32 %63
}