; Function Attrs: nounwind uwtable
define range(i32 -3, 1) i32 @CVodeSetJacTimes(ptr noundef %0, ptr noundef %1, ptr noundef %2) local_unnamed_addr #0 {
  %4 = icmp eq ptr %0, null
  br i1 %4, label %5, label %6

5:                                                ; preds = %3
  tail call void (ptr, i32, i32, ptr, ptr, ptr, ...) @cvProcessError(ptr noundef null, i32 noundef -1, i32 noundef 1930, ptr noundef nonnull @__func__.CVodeSetJacTimes, ptr noundef nonnull @.str, ptr noundef nonnull @.str.1) #13
  br label %cvLs_AccessLMem.exit.thread

6:                                                ; preds = %3
  %7 = getelementptr inbounds nuw i8, ptr %0, i64 1040
  %8 = load ptr, ptr %7, align 8, !tbaa !69
  %9 = icmp eq ptr %8, null
  br i1 %9, label %10, label %cvLs_AccessLMem.exit

10:                                               ; preds = %6
  tail call void (ptr, i32, i32, ptr, ptr, ptr, ...) @cvProcessError(ptr noundef nonnull %0, i32 noundef -2, i32 noundef 1937, ptr noundef nonnull @__func__.CVodeSetJacTimes, ptr noundef nonnull @.str, ptr noundef nonnull @.str.30) #13
  br label %cvLs_AccessLMem.exit.thread

cvLs_AccessLMem.exit:                             ; preds = %6
  %11 = getelementptr inbounds nuw i8, ptr %8, i64 72
  %12 = load ptr, ptr %11, align 8, !tbaa !35
  %13 = getelementptr inbounds nuw i8, ptr %12, i64 8
  %14 = load ptr, ptr %13, align 8, !tbaa !3
  %15 = getelementptr inbounds nuw i8, ptr %14, i64 16
  %16 = load ptr, ptr %15, align 8, !tbaa !30
  %17 = icmp eq ptr %16, null
  br i1 %17, label %18, label %19

18:                                               ; preds = %cvLs_AccessLMem.exit
  tail call void (ptr, i32, i32, ptr, ptr, ptr, ...) @cvProcessError(ptr noundef nonnull %0, i32 noundef -3, i32 noundef 507, ptr noundef nonnull @__func__.CVodeSetJacTimes, ptr noundef nonnull @.str, ptr noundef nonnull @.str.16) #13
  br label %cvLs_AccessLMem.exit.thread

19:                                               ; preds = %cvLs_AccessLMem.exit
  %.not8 = icmp eq ptr %2, null
  %20 = getelementptr inbounds nuw i8, ptr %8, i64 248
  %21 = getelementptr inbounds nuw i8, ptr %8, i64 256
  %22 = getelementptr inbounds nuw i8, ptr %8, i64 264
  br i1 %.not8, label %27, label %23

23:                                               ; preds = %19
  store i32 0, ptr %20, align 8, !tbaa !44
  store ptr %1, ptr %21, align 8, !tbaa !45
  store ptr %2, ptr %22, align 8, !tbaa !46
  %24 = getelementptr inbounds nuw i8, ptr %0, i64 24
  %25 = load ptr, ptr %24, align 8, !tbaa !53
  %26 = getelementptr inbounds nuw i8, ptr %8, i64 280
  store ptr %25, ptr %26, align 8, !tbaa !49
  br label %cvLs_AccessLMem.exit.thread

27:                                               ; preds = %19
  store i32 1, ptr %20, align 8, !tbaa !44
  store ptr null, ptr %21, align 8, !tbaa !45
  store ptr @cvLsDQJtimes, ptr %22, align 8, !tbaa !46
  %28 = getelementptr inbounds nuw i8, ptr %0, i64 16
  %29 = load ptr, ptr %28, align 8, !tbaa !47
  %30 = getelementptr inbounds nuw i8, ptr %8, i64 272
  store ptr %29, ptr %30, align 8, !tbaa !48
  %31 = getelementptr inbounds nuw i8, ptr %8, i64 280
  store ptr %0, ptr %31, align 8, !tbaa !49
  br label %cvLs_AccessLMem.exit.thread

cvLs_AccessLMem.exit.thread:                      ; preds = %10, %5, %23, %27, %18
  %.0 = phi i32 [ -3, %18 ], [ 0, %27 ], [ 0, %23 ], [ -2, %10 ], [ -1, %5 ]
  ret i32 %.0
}